target datalayout = "e-m:e-p270:32:32-p271:32:32-p272:64:64-i64:64-i128:128-f80:128-n8:16:32:64-S128"
target triple = "x86_64-pc-linux-gnu"

%"class.icu_77::number::impl::DecimalQuantity" = type <{ %"class.icu_77::IFixedDecimal", i8, [3 x i8], i32, i32, i8, i8, [2 x i8], double, i32, i32, i32, i32, %union.anon, i8, i8, [6 x i8] }>
%"class.icu_77::IFixedDecimal" = type { ptr }
%union.anon = type { %struct.anon }
%struct.anon = type { ptr, i32 }
%"class.icu_77::number::impl::DecNum" = type { %"class.icu_77::MaybeStackHeaderAndArray", %struct.decContext, [4 x i8] }
%"class.icu_77::MaybeStackHeaderAndArray" = type <{ ptr, i32, i8, [3 x i8], %struct.decNumber, [34 x i8], [2 x i8] }>
%struct.decNumber = type { i32, i32, i8, [1 x i8] }
%struct.decContext = type { i32, i32, i32, i32, i32, i32, i8 }

; Function Attrs: mustprogress uwtable
define void @_ZN6icu_776number4impl15DecimalQuantity12setBcdToZeroEv(ptr noundef nonnull align 8 dereferenceable(66) %0) #1 align 2 {
  %2 = alloca ptr, align 8
  store ptr %0, ptr %2, align 8, !tbaa !25
  %3 = load ptr, ptr %2, align 8
  %4 = getelementptr inbounds nuw %"class.icu_77::number::impl::DecimalQuantity", ptr %3, i32 0, i32 14
  %5 = load i8, ptr %4, align 8, !tbaa !37, !range !40, !noundef !41
  %6 = trunc i8 %5 to i1
  br i1 %6, label %7, label %14

7:                                                ; preds = %1
  %8 = getelementptr inbounds nuw %"class.icu_77::number::impl::DecimalQuantity", ptr %3, i32 0, i32 13
  %9 = getelementptr inbounds nuw %struct.anon, ptr %8, i32 0, i32 0
  %10 = load ptr, ptr %9, align 8, !tbaa !42
  call void @uprv_free_77(ptr noundef %10)
  %11 = getelementptr inbounds nuw %"class.icu_77::number::impl::DecimalQuantity", ptr %3, i32 0, i32 13
  %12 = getelementptr inbounds nuw %struct.anon, ptr %11, i32 0, i32 0
  store ptr null, ptr %12, align 8, !tbaa !42
  %13 = getelementptr inbounds nuw %"class.icu_77::number::impl::DecimalQuantity", ptr %3, i32 0, i32 14
  store i8 0, ptr %13, align 8, !tbaa !37
  br label %14

14:                                               ; preds = %7, %1
  %15 = getelementptr inbounds nuw %"class.icu_77::number::impl::DecimalQuantity", ptr %3, i32 0, i32 13
  store i64 0, ptr %15, align 8, !tbaa !42
  %16 = getelementptr inbounds nuw %"class.icu_77::number::impl::DecimalQuantity", ptr %3, i32 0, i32 3
  store i32 0, ptr %16, align 4, !tbaa !43
  %17 = getelementptr inbounds nuw %"class.icu_77::number::impl::DecimalQuantity", ptr %3, i32 0, i32 4
  store i32 0, ptr %17, align 8, !tbaa !44
  %18 = getelementptr inbounds nuw %"class.icu_77::number::impl::DecimalQuantity", ptr %3, i32 0, i32 6
  store i8 0, ptr %18, align 1, !tbaa !45
  %19 = getelementptr inbounds nuw %"class.icu_77::number::impl::DecimalQuantity", ptr %3, i32 0, i32 8
  store double 0.000000e+00, ptr %19, align 8, !tbaa !46
  %20 = getelementptr inbounds nuw %"class.icu_77::number::impl::DecimalQuantity", ptr %3, i32 0, i32 9
  store i32 0, ptr %20, align 8, !tbaa !47
  %21 = getelementptr inbounds nuw %"class.icu_77::number::impl::DecimalQuantity", ptr %3, i32 0, i32 12
  store i32 0, ptr %21, align 4, !tbaa !36
  ret void
}

; Function Attrs: mustprogress uwtable
define noundef nonnull align 8 dereferenceable(66) ptr @_ZN6icu_776number4impl15DecimalQuantity11setToDecNumERKNS1_6DecNumER10UErrorCode(ptr noundef nonnull align 8 dereferenceable(66) %0, ptr noundef nonnull align 8 dereferenceable(92) %1, ptr noundef nonnull align 4 dereferenceable(4) %2) #1 align 2 {
  %4 = alloca ptr, align 8
  %5 = alloca ptr, align 8
  %6 = alloca ptr, align 8
  store ptr %0, ptr %4, align 8, !tbaa !25
  store ptr %1, ptr %5, align 8, !tbaa !59
  store ptr %2, ptr %6, align 8, !tbaa !22
  %7 = load ptr, ptr %4, align 8
  call void @_ZN6icu_776number4impl15DecimalQuantity12setBcdToZeroEv(ptr noundef nonnull align 8 dereferenceable(66) %7)
  %8 = getelementptr inbounds nuw %"class.icu_77::number::impl::DecimalQuantity", ptr %7, i32 0, i32 5
  store i8 0, ptr %8, align 4, !tbaa !39
  %9 = load ptr, ptr %5, align 8, !tbaa !59
  %10 = load ptr, ptr %6, align 8, !tbaa !22
  call void @_ZN6icu_776number4impl15DecimalQuantity12_setToDecNumERKNS1_6DecNumER10UErrorCode(ptr noundef nonnull align 8 dereferenceable(66) %7, ptr noundef nonnull align 8 dereferenceable(92) %9, ptr noundef nonnull align 4 dereferenceable(4) %10)
  ret ptr %7
}

; Function Attrs: inlinehint mustprogress nounwind uwtable
define internal noundef signext i8 @_ZL9U_FAILURE10UErrorCode(i32 noundef %0) #2 {
  %2 = alloca i32, align 4
  store i32 %0, ptr %2, align 4, !tbaa !15
  %3 = load i32, ptr %2, align 4, !tbaa !15
  %4 = icmp sgt i32 %3, 0
  %5 = zext i1 %4 to i8
  ret i8 %5
}

; Function Attrs: mustprogress nounwind uwtable
define noundef zeroext i1 @_ZNK6icu_776number4impl15DecimalQuantity9isZeroishEv(ptr noundef nonnull align 8 dereferenceable(66) %0) #0 align 2 {
  %2 = alloca ptr, align 8
  store ptr %0, ptr %2, align 8, !tbaa !25
  %3 = load ptr, ptr %2, align 8
  %4 = getelementptr inbounds nuw %"class.icu_77::number::impl::DecimalQuantity", ptr %3, i32 0, i32 4
  %5 = load i32, ptr %4, align 8, !tbaa !44
  %6 = icmp eq i32 %5, 0
  ret i1 %6
}

; Function Attrs: mustprogress uwtable
define void @_ZN6icu_776number4impl15DecimalQuantity8divideByERKNS1_6DecNumER10UErrorCode(ptr noundef nonnull align 8 dereferenceable(66) %0, ptr noundef nonnull align 8 dereferenceable(92) %1, ptr noundef nonnull align 4 dereferenceable(4) %2) #1 align 2 personality ptr @__gxx_personality_v0 {
  %4 = alloca ptr, align 8
  %5 = alloca ptr, align 8
  %6 = alloca ptr, align 8
  %7 = alloca %"class.icu_77::number::impl::DecNum", align 8
  %8 = alloca ptr, align 8
  %9 = alloca i32, align 4
  %10 = alloca i32, align 4
  store ptr %0, ptr %4, align 8, !tbaa !25
  store ptr %1, ptr %5, align 8, !tbaa !59
  store ptr %2, ptr %6, align 8, !tbaa !22
  %11 = load ptr, ptr %4, align 8
  %12 = call noundef zeroext i1 @_ZNK6icu_776number4impl15DecimalQuantity9isZeroishEv(ptr noundef nonnull align 8 dereferenceable(66) %11)
  br i1 %12, label %13, label %14

13:                                               ; preds = %3
  br label %44

14:                                               ; preds = %3
  call void @llvm.lifetime.start.p0(i64 96, ptr %7) #14
  call void @_ZN6icu_776number4impl6DecNumC1Ev(ptr noundef nonnull align 8 dereferenceable(92) %7)
  %15 = load ptr, ptr %6, align 8, !tbaa !22
  %16 = invoke noundef nonnull align 8 dereferenceable(92) ptr @_ZNK6icu_776number4impl15DecimalQuantity8toDecNumERNS1_6DecNumER10UErrorCode(ptr noundef nonnull align 8 dereferenceable(66) %11, ptr noundef nonnull align 8 dereferenceable(92) %7, ptr noundef nonnull align 4 dereferenceable(4) %15)
          to label %17 unwind label %24

17:                                               ; preds = %14
  %18 = load ptr, ptr %6, align 8, !tbaa !22
  %19 = load i32, ptr %18, align 4, !tbaa !15
  %20 = invoke noundef signext i8 @_ZL9U_FAILURE10UErrorCode(i32 noundef %19)
          to label %21 unwind label %24

21:                                               ; preds = %17
  %22 = icmp ne i8 %20, 0
  br i1 %22, label %23, label %28

23:                                               ; preds = %21
  store i32 1, ptr %10, align 4
  br label %42

24:                                               ; preds = %38, %31, %28, %17, %14
  %25 = landingpad { ptr, i32 }
          cleanup
  %26 = extractvalue { ptr, i32 } %25, 0
  store ptr %26, ptr %8, align 8
  %27 = extractvalue { ptr, i32 } %25, 1
  store i32 %27, ptr %9, align 4
  call void @_ZN6icu_776number4impl6DecNumD2Ev(ptr noundef nonnull align 8 dereferenceable(92) %7) #14
  call void @llvm.lifetime.end.p0(i64 96, ptr %7) #14
  br label %45

28:                                               ; preds = %21
  %29 = load ptr, ptr %5, align 8, !tbaa !59
  %30 = load ptr, ptr %6, align 8, !tbaa !22
  invoke void @_ZN6icu_776number4impl6DecNum8divideByERKS2_R10UErrorCode(ptr noundef nonnull align 8 dereferenceable(92) %7, ptr noundef nonnull align 8 dereferenceable(92) %29, ptr noundef nonnull align 4 dereferenceable(4) %30)
          to label %31 unwind label %24

31:                                               ; preds = %28
  %32 = load ptr, ptr %6, align 8, !tbaa !22
  %33 = load i32, ptr %32, align 4, !tbaa !15
  %34 = invoke noundef signext i8 @_ZL9U_FAILURE10UErrorCode(i32 noundef %33)
          to label %35 unwind label %24

35:                                               ; preds = %31
  %36 = icmp ne i8 %34, 0
  br i1 %36, label %37, label %38

37:                                               ; preds = %35
  store i32 1, ptr %10, align 4
  br label %42

38:                                               ; preds = %35
  %39 = load ptr, ptr %6, align 8, !tbaa !22
  %40 = invoke noundef nonnull align 8 dereferenceable(66) ptr @_ZN6icu_776number4impl15DecimalQuantity11setToDecNumERKNS1_6DecNumER10UErrorCode(ptr noundef nonnull align 8 dereferenceable(66) %11, ptr noundef nonnull align 8 dereferenceable(92) %7, ptr noundef nonnull align 4 dereferenceable(4) %39)
          to label %41 unwind label %24

41:                                               ; preds = %38
  store i32 0, ptr %10, align 4
  br label %42

42:                                               ; preds = %41, %37, %23
  call void @_ZN6icu_776number4impl6DecNumD2Ev(ptr noundef nonnull align 8 dereferenceable(92) %7) #14
  call void @llvm.lifetime.end.p0(i64 96, ptr %7) #14
  %43 = load i32, ptr %10, align 4
  switch i32 %43, label %50 [
    i32 0, label %44
    i32 1, label %44
  ]

44:                                               ; preds = %13, %42, %42
  ret void

45:                                               ; preds = %24
  %46 = load ptr, ptr %8, align 8
  %47 = load i32, ptr %9, align 4
  %48 = insertvalue { ptr, i32 } poison, ptr %46, 0
  %49 = insertvalue { ptr, i32 } %48, i32 %47, 1
  resume { ptr, i32 } %49

50:                                               ; preds = %42
  unreachable
}